(lp0
(lp1
I6
aI0
aI-65
aI80
aI0
aI-65
aI-80
aI0
aI-65
aI80
aI0
aI-65
aI-80
aI0
aa(lp2
I150
aF0.0
aF-61.0
aI80
aF0.0
aF-70.0
aI-80
aF0.0
aF-70.0
aI80
aF0.0
aF-61.0
aI-80
aI0
aa(lp3
I150
aF24.5
aF-59.0
aI80
aF-26.0
aF-71.0
aI-80
aF-26.0
aF-71.0
aI80
aF24.5
aF-59.0
aI-80
aI0
aa(lp4
I150
aF28.0
aF-66.5
aI80
aF-27.0
aF-63.0
aI-80
aF-27.0
aF-63.0
aI80
aF28.0
aF-66.5
aI-80
aI0
aa(lp5
I150
aF0.0
aF-70.0
aI80
aF0.0
aF-61.0
aI-80
aF0.0
aF-61.0
aI80
aF0.0
aF-70.0
aI-80
aI0
aa(lp6
I150
aF-26.0
aF-71.0
aI80
aF24.5
aF-59.0
aI-80
aF24.5
aF-59.0
aI80
aF-26.0
aF-71.0
aI-80
aI0
aa(lp7
I150
aF-28.0
aF-65.0
aI80
aF28.0
aF-65.0
aI-80
aF28.0
aF-65.0
aI80
aF-28.0
aF-65.0
aI-80
aI0
aa.