(lp0
(lp1
I9
aI0
aI-65
aI0
aI0
aI-65
aI0
aI0
aI-65
aI0
aI0
aI-65
aI0
aI0
aa(lp2
I210
aI0
aI-65
aI0
aI0
aI-50
aI0
aI0
aI-50
aI0
aI0
aI-65
aI0
aI0
aa(lp3
I210
aI-32
aI-64
aI0
aI0
aI-50
aI0
aI0
aI-50
aI0
aI-32
aI-64
aI0
aI0
aa(lp4
I210
aI0
aI-50
aI0
aI0
aI-65
aI0
aI0
aI-65
aI0
aI0
aI-50
aI0
aI0
aa(lp5
I200
aI0
aI-65
aI0
aI0
aI-65
aI0
aI0
aI-65
aI0
aI0
aI-65
aI0
aa(lp6
I210
aI0
aI-65
aI0
aI0
aI-50
aI0
aI0
aI-50
aI0
aI0
aI-65
aI0
aI0
aa(lp7
I210
aI0
aI-50
aI0
aI0
aI-65
aI0
aI0
aI-65
aI0
aI0
aI-50
aI0
aI0
aa(lp8
I210
aI0
aI-50
aI0
aI-25
aI-62
aI0
aI-40
aI-62
aI0
aI0
aI-50
aI0
aI0
aa(lp9
I210
aI0
aI-65
aI0
aI0
aI-50
aI0
aI0
aI-50
aI0
aI0
aI-65
aI0
aI0
aa(lp10
I210
aI0
aI-50
aI0
aI0
aI-65
aI0
aI0
aI-65
aI0
aI0
aI-50
aI0
aI0
aa.