(lp0
(lp1
I12
aI0
aI-65
aI0
aI0
aI-65
aI0
aI0
aI-65
aI0
aI0
aI-65
aI0
aI0
aag1
a(lp2
I210
aI0
aI-65
aI0
aI0
aI-50
aI0
aI0
aI-50
aI0
aI0
aI-65
aI0
aI0
aa(lp3
I210
aI-32
aI-64
aI0
aI0
aI-50
aI0
aI0
aI-50
aI0
aI-32
aI-64
aI0
aI0
aa(lp4
I210
aI-32
aI-64
aI0
aI8
aI-61
aI0
aI-4
aI-62
aI0
aI-32
aI-64
aI0
aI0
aa(lp5
I210
aI-32
aI-64
aI0
aI-33
aI-72
aI0
aI-33
aI-60
aI0
aI-32
aI-64
aI0
aI0
aag5
ag1
a(lp6
I210
aI0
aI-50
aI0
aI0
aI-65
aI0
aI0
aI-65
aI0
aI0
aI-50
aI0
aI0
aa(lp7
I210
aI0
aI-65
aI0
aI0
aI-50
aI0
aI0
aI-50
aI0
aI0
aI-65
aI0
aI0
aa(lp8
I210
aI0
aI-50
aI0
aI0
aI-65
aI0
aI0
aI-65
aI0
aI0
aI-50
aI0
aI0
aa(lp9
I210
aI0
aI-65
aI0
aI0
aI-50
aI0
aI0
aI-50
aI0
aI0
aI-65
aI0
aI0
aa(lp10
I210
aI0
aI-50
aI0
aI0
aI-65
aI0
aI0
aI-65
aI0
aI0
aI-50
aI0
aI0
aa.