(lp0
(lp1
I6
aI0
aI-75
aI0
aI0
aI-75
aI0
aI0
aI-75
aI0
aI0
aI-75
aI0
aI0
aa(lp2
I210
aI0
aI-75
aI0
aI0
aI-75
aI0
aI0
aI-75
aI0
aI0
aI-75
aI0
aI0
aa(lp3
I210
aI28
aI-55
aI0
aI0
aI-75
aI0
aI0
aI-75
aI0
aI28
aI-55
aI0
aI0
aa(lp4
I210
aI28
aI-75
aI0
aI0
aI-75
aI0
aI0
aI-75
aI0
aI28
aI-75
aI0
aI0
aa(lp5
I210
aI0
aI-75
aI0
aI0
aI-75
aI0
aI0
aI-75
aI0
aI0
aI-75
aI0
aI0
aa(lp6
I210
aI0
aI-75
aI0
aI28
aI-55
aI0
aI28
aI-55
aI0
aI0
aI-75
aI0
aI0
aa(lp7
I210
aI0
aI-75
aI0
aI28
aI-75
aI0
aI28
aI-75
aI0
aI0
aI-75
aI0
aI0
aa.