(lp0
(lp1
I6
aI0
aI-75
aI120
aI0
aI-75
aI-120
aI0
aI-75
aI120
aI0
aI-75
aI-120
aI0
aa(lp2
I150
aI0
aI-60
aI120
aI0
aI-65
aI-120
aI0
aI-65
aI120
aI0
aI-60
aI-120
aI0
aa(lp3
I150
aI14
aI-60
aI120
aI-14
aI-65
aI-120
aI-14
aI-65
aI120
aI14
aI-60
aI-120
aI0
aa(lp4
I150
aI14
aI-65
aI120
aI-14
aI-60
aI-120
aI-14
aI-60
aI120
aI14
aI-65
aI-120
aI0
aa(lp5
I150
aI0
aI-65
aI120
aI0
aI-60
aI-120
aI0
aI-60
aI120
aI0
aI-65
aI-120
aI0
aa(lp6
I150
aI-14
aI-65
aI120
aI14
aI-60
aI-120
aI14
aI-60
aI120
aI-14
aI-65
aI-120
aI0
aa(lp7
I150
aI-14
aI-60
aI120
aI14
aI-65
aI-120
aI14
aI-65
aI120
aI-14
aI-60
aI-120
aI0
aa.