(lp0
(lp1
I6
aI0
aI-75
aI80
aI0
aI-75
aI-80
aI0
aI-75
aI80
aI0
aI-75
aI-80
aI0
aa(lp2
I210
aI0
aI-60
aI80
aI0
aI-65
aI-80
aI0
aI-65
aI80
aI0
aI-60
aI-80
aI0
aa(lp3
I210
aI14
aI-60
aI80
aI-14
aI-65
aI-80
aI-14
aI-65
aI80
aI14
aI-60
aI-80
aI0
aa(lp4
I210
aI14
aI-65
aI80
aI-14
aI-60
aI-80
aI-14
aI-60
aI80
aI14
aI-65
aI-80
aI0
aa(lp5
I210
aI0
aI-65
aI80
aI0
aI-60
aI-80
aI0
aI-60
aI80
aI0
aI-65
aI-80
aI0
aa(lp6
I210
aI-14
aI-65
aI80
aI14
aI-60
aI-80
aI14
aI-60
aI80
aI-14
aI-65
aI-80
aI0
aa(lp7
I210
aI-14
aI-60
aI80
aI14
aI-65
aI-80
aI14
aI-65
aI80
aI-14
aI-60
aI-80
aI0
aa.