(lp0
(lp1
I6
aI0
aI-65
aI0
aI0
aI-65
aI0
aI0
aI-65
aI0
aI0
aI-65
aI0
aI0
aa(lp2
I210
aI0
aI-65
aI30
aI0
aI-50
aI-29
aI0
aI-50
aI26
aI0
aI-65
aI-30
aI0
aa(lp3
I210
aI0
aI-50
aI0
aI0
aI-65
aI0
aI0
aI-65
aI0
aI0
aI-50
aI0
aI0
aa(lp4
I210
aI0
aI-65
aI0
aI0
aI-50
aI0
aI0
aI-50
aI0
aI0
aI-65
aI0
aI0
aa(lp5
I210
aI0
aI-50
aI0
aI0
aI-65
aI0
aI0
aI-65
aI0
aI0
aI-50
aI0
aI0
aa(lp6
I210
aI0
aI-65
aI31
aI0
aI-50
aI-29
aI0
aI-50
aI31
aI0
aI-65
aI-29
aI0
aa(lp7
I210
aI0
aI-50
aI0
aI0
aI-65
aI0
aI0
aI-65
aI0
aI0
aI-50
aI0
aI0
aa.